; Function Attrs: mustprogress nounwind uwtable
define internal void @_ZN3gmx12_GLOBAL__N_126HelpExportReStructuredTextD2Ev(ptr noundef nonnull align 8 dereferenceable(48) %0) unnamed_addr #0 align 2 personality ptr @__gxx_personality_v0 {
  store ptr getelementptr inbounds inrange(-16, 72) ({ [11 x ptr] }, ptr @_ZTVN3gmx12_GLOBAL__N_126HelpExportReStructuredTextE, i64 0, i32 0, i64 2), ptr %0, align 8
  %2 = getelementptr inbounds i8, ptr %0, i64 40
  %3 = load ptr, ptr %2, align 8
  %.not.i = icmp eq ptr %3, null
  br i1 %.not.i, label %_ZNSt10unique_ptrIN3gmx10TextWriterESt14default_deleteIS1_EED2Ev.exit, label %_ZNKSt14default_deleteIN3gmx10TextWriterEEclEPS1_.exit.i

_ZNKSt14default_deleteIN3gmx10TextWriterEEclEPS1_.exit.i: ; preds = %1
  tail call void @_ZN3gmx10TextWriterD1Ev(ptr noundef nonnull align 8 dereferenceable(8) %3) #19
  tail call void @_ZdlPv(ptr noundef nonnull %3) #20
  br label %_ZNSt10unique_ptrIN3gmx10TextWriterESt14default_deleteIS1_EED2Ev.exit

_ZNSt10unique_ptrIN3gmx10TextWriterESt14default_deleteIS1_EED2Ev.exit: ; preds = %1, %_ZNKSt14default_deleteIN3gmx10TextWriterEEclEPS1_.exit.i
  store ptr null, ptr %2, align 8
  %4 = getelementptr inbounds i8, ptr %0, i64 32
  %5 = load ptr, ptr %4, align 8
  %.not.i1 = icmp eq ptr %5, null
  br i1 %.not.i1, label %_ZNSt10unique_ptrIN3gmx10TextWriterESt14default_deleteIS1_EED2Ev.exit3, label %_ZNKSt14default_deleteIN3gmx10TextWriterEEclEPS1_.exit.i2

_ZNKSt14default_deleteIN3gmx10TextWriterEEclEPS1_.exit.i2: ; preds = %_ZNSt10unique_ptrIN3gmx10TextWriterESt14default_deleteIS1_EED2Ev.exit
  tail call void @_ZN3gmx10TextWriterD1Ev(ptr noundef nonnull align 8 dereferenceable(8) %5) #19
  tail call void @_ZdlPv(ptr noundef nonnull %5) #20
  br label %_ZNSt10unique_ptrIN3gmx10TextWriterESt14default_deleteIS1_EED2Ev.exit3

_ZNSt10unique_ptrIN3gmx10TextWriterESt14default_deleteIS1_EED2Ev.exit3: ; preds = %_ZNSt10unique_ptrIN3gmx10TextWriterESt14default_deleteIS1_EED2Ev.exit, %_ZNKSt14default_deleteIN3gmx10TextWriterEEclEPS1_.exit.i2
  store ptr null, ptr %4, align 8
  %6 = getelementptr inbounds i8, ptr %0, i64 24
  tail call void @_ZN3gmx9HelpLinksD1Ev(ptr noundef nonnull align 8 dereferenceable(8) %6) #19
  ret void
}